target datalayout = "e-m:e-p270:32:32-p271:32:32-p272:64:64-i64:64-i128:128-f80:128-n8:16:32:64-S128"
target triple = "x86_64-pc-linux-gnu"

%struct._GRWLock = type { ptr, [2 x i32] }
%struct._GArray = type { ptr, i32 }
%struct.CPU = type { ptr, ptr }
%struct._GString = type { ptr, i64, i64 }

@cpus = internal global ptr null, align 8
@expand_array_lock = internal global %struct._GRWLock zeroinitializer, align 8
@.str.11 = private unnamed_addr constant [2 x i8] c"\0A\00", align 1
@.str.19 = private unnamed_addr constant [5 x i8] c"%u, \00", align 1

; Function Attrs: nounwind sspstrong uwtable
define internal ptr @get_cpu(i32 noundef %0) #0 {
  %2 = alloca i32, align 4
  %3 = alloca ptr, align 8
  store i32 %0, ptr %2, align 4
  call void @llvm.lifetime.start.p0(i64 8, ptr %3) #11
  store ptr null, ptr %3, align 8, !annotation !7
  call void @g_rw_lock_reader_lock(ptr noundef @expand_array_lock)
  %4 = load ptr, ptr @cpus, align 8
  %5 = getelementptr inbounds nuw %struct._GArray, ptr %4, i32 0, i32 0
  %6 = load ptr, ptr %5, align 8
  %7 = load i32, ptr %2, align 4
  %8 = sext i32 %7 to i64
  %9 = getelementptr inbounds %struct.CPU, ptr %6, i64 %8
  store ptr %9, ptr %3, align 8
  call void @g_rw_lock_reader_unlock(ptr noundef @expand_array_lock)
  %10 = load ptr, ptr %3, align 8
  call void @llvm.lifetime.end.p0(i64 8, ptr %3) #11
  ret ptr %10
}

; Function Attrs: nounwind sspstrong uwtable
define internal void @vcpu_insn_exec(i32 noundef %0, ptr noundef %1) #0 {
  %3 = alloca i32, align 4
  %4 = alloca ptr, align 8
  %5 = alloca ptr, align 8
  store i32 %0, ptr %3, align 4
  store ptr %1, ptr %4, align 8
  call void @llvm.lifetime.start.p0(i64 8, ptr %5) #11
  %6 = load i32, ptr %3, align 4
  %7 = call ptr @get_cpu(i32 noundef %6)
  store ptr %7, ptr %5, align 8
  %8 = load ptr, ptr %5, align 8
  %9 = getelementptr inbounds nuw %struct.CPU, ptr %8, i32 0, i32 0
  %10 = load ptr, ptr %9, align 8
  %11 = getelementptr inbounds nuw %struct._GString, ptr %10, i32 0, i32 1
  %12 = load i64, ptr %11, align 8
  %13 = icmp ne i64 %12, 0
  br i1 %13, label %14, label %20

14:                                               ; preds = %2
  %15 = load ptr, ptr %5, align 8
  %16 = getelementptr inbounds nuw %struct.CPU, ptr %15, i32 0, i32 0
  %17 = load ptr, ptr %16, align 8
  %18 = getelementptr inbounds nuw %struct._GString, ptr %17, i32 0, i32 0
  %19 = load ptr, ptr %18, align 8
  call void @qemu_plugin_outs(ptr noundef %19)
  call void @qemu_plugin_outs(ptr noundef @.str.11)
  br label %20

20:                                               ; preds = %14, %2
  %21 = load ptr, ptr %5, align 8
  %22 = getelementptr inbounds nuw %struct.CPU, ptr %21, i32 0, i32 0
  %23 = load ptr, ptr %22, align 8
  %24 = load i32, ptr %3, align 4
  call void (ptr, ptr, ...) @g_string_printf(ptr noundef %23, ptr noundef @.str.19, i32 noundef %24)
  %25 = load ptr, ptr %5, align 8
  %26 = getelementptr inbounds nuw %struct.CPU, ptr %25, i32 0, i32 0
  %27 = load ptr, ptr %26, align 8
  %28 = load ptr, ptr %4, align 8
  %29 = call ptr @g_string_append(ptr noundef %27, ptr noundef %28)
  call void @llvm.lifetime.end.p0(i64 8, ptr %5) #11
  ret void
}