; Function Attrs: nounwind sspstrong uwtable
define internal void @vcpu_insn_exec(i32 noundef %0, ptr noundef %1) #0 {
  tail call void @g_rw_lock_reader_lock(ptr noundef nonnull @expand_array_lock) #7
  %3 = load ptr, ptr @cpus, align 8
  %4 = load ptr, ptr %3, align 8
  %5 = sext i32 %0 to i64
  %6 = getelementptr inbounds %struct.CPU, ptr %4, i64 %5
  tail call void @g_rw_lock_reader_unlock(ptr noundef nonnull @expand_array_lock) #7
  %7 = load ptr, ptr %6, align 8
  %8 = getelementptr inbounds nuw i8, ptr %7, i64 8
  %9 = load i64, ptr %8, align 8
  %.not = icmp eq i64 %9, 0
  br i1 %.not, label %12, label %10

10:                                               ; preds = %2
  %11 = load ptr, ptr %7, align 8
  tail call void @qemu_plugin_outs(ptr noundef %11) #7
  tail call void @qemu_plugin_outs(ptr noundef nonnull @.str.11) #7
  %.pre = load ptr, ptr %6, align 8
  br label %12

12:                                               ; preds = %10, %2
  %13 = phi ptr [ %.pre, %10 ], [ %7, %2 ]
  tail call void (ptr, ptr, ...) @g_string_printf(ptr noundef %13, ptr noundef nonnull @.str.19, i32 noundef %0) #7
  %14 = load ptr, ptr %6, align 8
  %15 = tail call ptr @g_string_append(ptr noundef %14, ptr noundef %1) #7
  ret void
}